; Function Attrs: mustprogress nounwind uwtable
define void @_ZN8facebook5velox5cache19AsyncDataCacheEntryD2Ev(ptr noundef nonnull align 8 dereferenceable(169) %this) unnamed_addr #0 align 2 personality ptr @__gxx_personality_v0 {
entry:
  %shard_ = getelementptr inbounds i8, ptr %this, i64 24
  %0 = load ptr, ptr %shard_, align 8
  %1 = load ptr, ptr %0, align 8
  %vtable = load ptr, ptr %1, align 8
  %vfn = getelementptr inbounds i8, ptr %vtable, i64 32
  %2 = load ptr, ptr %vfn, align 8
  %call3 = invoke noundef ptr %2(ptr noundef nonnull align 8 dereferenceable(300) %1)
          to label %invoke.cont2 unwind label %terminate.lpad

invoke.cont2:                                     ; preds = %entry
  %data_ = getelementptr inbounds i8, ptr %this, i64 32
  %vtable4 = load ptr, ptr %call3, align 8
  %vfn5 = getelementptr inbounds i8, ptr %vtable4, i64 40
  %3 = load ptr, ptr %vfn5, align 8
  %call7 = invoke noundef i64 %3(ptr noundef nonnull align 8 dereferenceable(880) %call3, ptr noundef nonnull align 8 dereferenceable(36) %data_)
          to label %invoke.cont6 unwind label %terminate.lpad

invoke.cont6:                                     ; preds = %invoke.cont2
  %promise_ = getelementptr inbounds i8, ptr %this, i64 104
  %4 = load ptr, ptr %promise_, align 8
  %cmp.not.i = icmp eq ptr %4, null
  br i1 %cmp.not.i, label %_ZNSt10unique_ptrIN5folly13SharedPromiseIbEESt14default_deleteIS2_EED2Ev.exit, label %_ZNKSt14default_deleteIN5folly13SharedPromiseIbEEEclEPS2_.exit.i

_ZNKSt14default_deleteIN5folly13SharedPromiseIbEEEclEPS2_.exit.i: ; preds = %invoke.cont6
  tail call void @_ZN5folly13SharedPromiseIbED2Ev(ptr noundef nonnull align 8 dereferenceable(120) %4) #21
  tail call void @_ZdlPv(ptr noundef nonnull %4) #39
  br label %_ZNSt10unique_ptrIN5folly13SharedPromiseIbEESt14default_deleteIS2_EED2Ev.exit

_ZNSt10unique_ptrIN5folly13SharedPromiseIbEESt14default_deleteIS2_EED2Ev.exit: ; preds = %invoke.cont6, %_ZNKSt14default_deleteIN5folly13SharedPromiseIbEEEclEPS2_.exit.i
  store ptr null, ptr %promise_, align 8
  %tinyData_ = getelementptr inbounds i8, ptr %this, i64 72
  tail call void @_ZNSt7__cxx1112basic_stringIcSt11char_traitsIcESaIcEED1Ev(ptr noundef nonnull align 8 dereferenceable(32) %tinyData_) #21
  tail call void @_ZN8facebook5velox6memory10AllocationD1Ev(ptr noundef nonnull align 8 dereferenceable(36) %data_) #21
  %5 = load ptr, ptr %this, align 8
  %tobool.not.i.i.i = icmp eq ptr %5, null
  br i1 %tobool.not.i.i.i, label %_ZN8facebook5velox5cache12FileCacheKeyD2Ev.exit, label %if.then.i.i.i

if.then.i.i.i:                                    ; preds = %_ZNSt10unique_ptrIN5folly13SharedPromiseIbEESt14default_deleteIS2_EED2Ev.exit
  %id_.i.i.i = getelementptr inbounds i8, ptr %this, i64 8
  %6 = load i64, ptr %id_.i.i.i, align 8
  invoke void @_ZN8facebook5velox11StringIdMap7releaseEm(ptr noundef nonnull align 8 dereferenceable(104) %5, i64 noundef %6)
          to label %.noexc.i.i unwind label %terminate.lpad.i.i

.noexc.i.i:                                       ; preds = %if.then.i.i.i
  store ptr null, ptr %this, align 8
  store i64 -1, ptr %id_.i.i.i, align 8
  br label %_ZN8facebook5velox5cache12FileCacheKeyD2Ev.exit

terminate.lpad.i.i:                               ; preds = %if.then.i.i.i
  %7 = landingpad { ptr, i32 }
          catch ptr null
  %8 = extractvalue { ptr, i32 } %7, 0
  tail call void @__clang_call_terminate(ptr %8) #40
  unreachable

_ZN8facebook5velox5cache12FileCacheKeyD2Ev.exit:  ; preds = %_ZNSt10unique_ptrIN5folly13SharedPromiseIbEESt14default_deleteIS2_EED2Ev.exit, %.noexc.i.i
  ret void

terminate.lpad:                                   ; preds = %invoke.cont2, %entry
  %9 = landingpad { ptr, i32 }
          catch ptr null
  %10 = extractvalue { ptr, i32 } %9, 0
  tail call void @__clang_call_terminate(ptr %10) #40
  unreachable
}